target datalayout = "e-m:e-p270:32:32-p271:32:32-p272:64:64-i64:64-i128:128-f80:128-n8:16:32:64-S128"
target triple = "x86_64-pc-linux-gnu"

%"class.cv::UMat" = type { i32, i32, i32, i32, ptr, i32, ptr, i64, %"struct.cv::MatSize", %"struct.cv::MatStep" }
%"struct.cv::MatSize" = type { ptr }
%"struct.cv::MatStep" = type { ptr, [2 x i64] }

; Function Attrs: mustprogress uwtable
define hidden void @_ZN2cv3dnn14dnn4_v202412236getMatERNS_4UMatERKNS_11_InputArrayENS_10AccessFlagE(ptr noundef nonnull align 8 dereferenceable(80) %0, ptr noundef nonnull align 8 dereferenceable(24) %1, i32 noundef %2) #4 personality ptr @__gxx_personality_v0 {
  %4 = alloca ptr, align 8
  %5 = alloca ptr, align 8
  %6 = alloca i32, align 4
  %7 = alloca %"class.cv::UMat", align 8
  %8 = alloca ptr, align 8
  %9 = alloca i32, align 4
  %10 = alloca %"class.cv::UMat", align 8
  store ptr %0, ptr %4, align 8, !tbaa !42
  store ptr %1, ptr %5, align 8, !tbaa !36
  store i32 %2, ptr %6, align 4, !tbaa !44
  %11 = load ptr, ptr %5, align 8, !tbaa !36
  %12 = call noundef i32 @_ZNK2cv11_InputArray4kindEv(ptr noundef nonnull align 8 dereferenceable(24) %11)
  %13 = icmp eq i32 %12, 655360
  br i1 %13, label %14, label %23

14:                                               ; preds = %3
  call void @llvm.lifetime.start.p0(i64 80, ptr %7) #3
  %15 = load ptr, ptr %5, align 8, !tbaa !36
  call void @_ZNK2cv11_InputArray7getUMatEi(ptr dead_on_unwind writable sret(%"class.cv::UMat") align 8 %7, ptr noundef nonnull align 8 dereferenceable(24) %15, i32 noundef -1)
  %16 = load ptr, ptr %4, align 8, !tbaa !42
  %17 = invoke noundef nonnull align 8 dereferenceable(80) ptr @_ZN2cv4UMataSEOS0_(ptr noundef nonnull align 8 dereferenceable(80) %16, ptr noundef nonnull align 8 dereferenceable(80) %7)
          to label %18 unwind label %19

18:                                               ; preds = %14
  call void @_ZN2cv4UMatD1Ev(ptr noundef nonnull align 8 dereferenceable(80) %7) #3
  call void @llvm.lifetime.end.p0(i64 80, ptr %7) #3
  br label %37

19:                                               ; preds = %14
  %20 = landingpad { ptr, i32 }
          cleanup
  %21 = extractvalue { ptr, i32 } %20, 0
  store ptr %21, ptr %8, align 8
  %22 = extractvalue { ptr, i32 } %20, 1
  store i32 %22, ptr %9, align 4
  call void @_ZN2cv4UMatD1Ev(ptr noundef nonnull align 8 dereferenceable(80) %7) #3
  call void @llvm.lifetime.end.p0(i64 80, ptr %7) #3
  br label %38

23:                                               ; preds = %3
  %24 = load ptr, ptr %5, align 8, !tbaa !36
  %25 = call noundef i32 @_ZNK2cv11_InputArray4kindEv(ptr noundef nonnull align 8 dereferenceable(24) %24)
  %26 = icmp eq i32 %25, 65536
  br i1 %26, label %27, label %36

27:                                               ; preds = %23
  call void @llvm.lifetime.start.p0(i64 80, ptr %10) #3
  %28 = load ptr, ptr %5, align 8, !tbaa !36
  call void @_ZNK2cv11_InputArray7getUMatEi(ptr dead_on_unwind writable sret(%"class.cv::UMat") align 8 %10, ptr noundef nonnull align 8 dereferenceable(24) %28, i32 noundef -1)
  %29 = load ptr, ptr %4, align 8, !tbaa !42
  %30 = invoke noundef nonnull align 8 dereferenceable(80) ptr @_ZN2cv4UMataSEOS0_(ptr noundef nonnull align 8 dereferenceable(80) %29, ptr noundef nonnull align 8 dereferenceable(80) %10)
          to label %31 unwind label %32

31:                                               ; preds = %27
  call void @_ZN2cv4UMatD1Ev(ptr noundef nonnull align 8 dereferenceable(80) %10) #3
  call void @llvm.lifetime.end.p0(i64 80, ptr %10) #3
  br label %36

32:                                               ; preds = %27
  %33 = landingpad { ptr, i32 }
          cleanup
  %34 = extractvalue { ptr, i32 } %33, 0
  store ptr %34, ptr %8, align 8
  %35 = extractvalue { ptr, i32 } %33, 1
  store i32 %35, ptr %9, align 4
  call void @_ZN2cv4UMatD1Ev(ptr noundef nonnull align 8 dereferenceable(80) %10) #3
  call void @llvm.lifetime.end.p0(i64 80, ptr %10) #3
  br label %38

36:                                               ; preds = %31, %23
  br label %37

37:                                               ; preds = %36, %18
  ret void

38:                                               ; preds = %32, %19
  %39 = load ptr, ptr %8, align 8
  %40 = load i32, ptr %9, align 4
  %41 = insertvalue { ptr, i32 } poison, ptr %39, 0
  %42 = insertvalue { ptr, i32 } %41, i32 %40, 1
  resume { ptr, i32 } %42
}