; Function Attrs: mustprogress uwtable
define hidden void @_ZN2cv3dnn14dnn4_v202412236getMatERNS_4UMatERKNS_11_InputArrayENS_10AccessFlagE(ptr noundef nonnull align 8 dereferenceable(80) %0, ptr noundef nonnull align 8 dereferenceable(24) %1, i32 noundef %2) local_unnamed_addr #6 personality ptr @__gxx_personality_v0 {
  %4 = alloca %"class.cv::UMat", align 8
  %5 = alloca %"class.cv::UMat", align 8
  %6 = tail call noundef i32 @_ZNK2cv11_InputArray4kindEv(ptr noundef nonnull align 8 dereferenceable(24) %1)
  %7 = icmp eq i32 %6, 655360
  br i1 %7, label %8, label %13

8:                                                ; preds = %3
  call void @llvm.lifetime.start.p0(i64 80, ptr nonnull %4) #21
  call void @_ZNK2cv11_InputArray7getUMatEi(ptr dead_on_unwind nonnull writable sret(%"class.cv::UMat") align 8 %4, ptr noundef nonnull align 8 dereferenceable(24) %1, i32 noundef -1)
  %9 = invoke noundef nonnull align 8 dereferenceable(80) ptr @_ZN2cv4UMataSEOS0_(ptr noundef nonnull align 8 dereferenceable(80) %0, ptr noundef nonnull align 8 dereferenceable(80) %4)
          to label %10 unwind label %11

10:                                               ; preds = %8
  call void @_ZN2cv4UMatD1Ev(ptr noundef nonnull align 8 dereferenceable(80) %4) #21
  call void @llvm.lifetime.end.p0(i64 80, ptr nonnull %4) #21
  br label %21

11:                                               ; preds = %8
  %12 = landingpad { ptr, i32 }
          cleanup
  call void @_ZN2cv4UMatD1Ev(ptr noundef nonnull align 8 dereferenceable(80) %4) #21
  call void @llvm.lifetime.end.p0(i64 80, ptr nonnull %4) #21
  br label %22

13:                                               ; preds = %3
  %14 = tail call noundef i32 @_ZNK2cv11_InputArray4kindEv(ptr noundef nonnull align 8 dereferenceable(24) %1)
  %15 = icmp eq i32 %14, 65536
  br i1 %15, label %16, label %21

16:                                               ; preds = %13
  call void @llvm.lifetime.start.p0(i64 80, ptr nonnull %5) #21
  call void @_ZNK2cv11_InputArray7getUMatEi(ptr dead_on_unwind nonnull writable sret(%"class.cv::UMat") align 8 %5, ptr noundef nonnull align 8 dereferenceable(24) %1, i32 noundef -1)
  %17 = invoke noundef nonnull align 8 dereferenceable(80) ptr @_ZN2cv4UMataSEOS0_(ptr noundef nonnull align 8 dereferenceable(80) %0, ptr noundef nonnull align 8 dereferenceable(80) %5)
          to label %18 unwind label %19

18:                                               ; preds = %16
  call void @_ZN2cv4UMatD1Ev(ptr noundef nonnull align 8 dereferenceable(80) %5) #21
  call void @llvm.lifetime.end.p0(i64 80, ptr nonnull %5) #21
  br label %21

19:                                               ; preds = %16
  %20 = landingpad { ptr, i32 }
          cleanup
  call void @_ZN2cv4UMatD1Ev(ptr noundef nonnull align 8 dereferenceable(80) %5) #21
  call void @llvm.lifetime.end.p0(i64 80, ptr nonnull %5) #21
  br label %22

21:                                               ; preds = %13, %18, %10
  ret void

22:                                               ; preds = %19, %11
  %.pn = phi { ptr, i32 } [ %12, %11 ], [ %20, %19 ]
  resume { ptr, i32 } %.pn
}